; Function Attrs: mustprogress uwtable
define dso_local noundef zeroext i1 @_ZN4Json9OurReader8addErrorERKNSt7__cxx1112basic_stringIcSt11char_traitsIcESaIcEEERNS0_5TokenEPKc(ptr noundef nonnull align 8 dereferenceable(297) %0, ptr noundef nonnull align 8 dereferenceable(32) %1, ptr nocapture noundef nonnull readonly align 8 dereferenceable(24) %2, ptr noundef %3) local_unnamed_addr #6 align 2 personality ptr @__gxx_personality_v0 {
  %5 = alloca %"class.Json::OurReader::ErrorInfo", align 8
  %6 = getelementptr inbounds i8, ptr %5, i64 24
  call void @_ZNSt7__cxx1112basic_stringIcSt11char_traitsIcESaIcEEC1Ev(ptr noundef nonnull align 8 dereferenceable(32) %6) #25
  call void @llvm.memcpy.p0.p0.i64(ptr noundef nonnull align 8 dereferenceable(24) %5, ptr noundef nonnull align 8 dereferenceable(24) %2, i64 24, i1 false)
  %7 = invoke noundef nonnull align 8 dereferenceable(32) ptr @_ZNSt7__cxx1112basic_stringIcSt11char_traitsIcESaIcEEaSERKS4_(ptr noundef nonnull align 8 dereferenceable(32) %6, ptr noundef nonnull align 8 dereferenceable(32) %1)
          to label %8 unwind label %23

8:                                                ; preds = %4
  %9 = getelementptr inbounds i8, ptr %5, i64 56
  store ptr %3, ptr %9, align 8
  %10 = getelementptr inbounds i8, ptr %0, i64 128
  %11 = load ptr, ptr %10, align 8
  %12 = getelementptr inbounds i8, ptr %0, i64 144
  %13 = load ptr, ptr %12, align 8
  %14 = getelementptr inbounds i8, ptr %13, i64 -64
  %.not.i = icmp eq ptr %11, %14
  br i1 %.not.i, label %21, label %15

15:                                               ; preds = %8
  call void @llvm.memcpy.p0.p0.i64(ptr noundef nonnull align 8 dereferenceable(24) %11, ptr noundef nonnull align 8 dereferenceable(24) %5, i64 24, i1 false)
  %16 = getelementptr inbounds i8, ptr %11, i64 24
  invoke void @_ZNSt7__cxx1112basic_stringIcSt11char_traitsIcESaIcEEC1ERKS4_(ptr noundef nonnull align 8 dereferenceable(32) %16, ptr noundef nonnull align 8 dereferenceable(32) %6)
          to label %.noexc unwind label %23

.noexc:                                           ; preds = %15
  %17 = getelementptr inbounds i8, ptr %11, i64 56
  %18 = load ptr, ptr %9, align 8
  store ptr %18, ptr %17, align 8
  %19 = load ptr, ptr %10, align 8
  %20 = getelementptr inbounds i8, ptr %19, i64 64
  store ptr %20, ptr %10, align 8
  br label %_ZNSt5dequeIN4Json9OurReader9ErrorInfoESaIS2_EE9push_backERKS2_.exit

21:                                               ; preds = %8
  %22 = getelementptr inbounds i8, ptr %0, i64 80
  invoke void @_ZNSt5dequeIN4Json9OurReader9ErrorInfoESaIS2_EE16_M_push_back_auxIJRKS2_EEEvDpOT_(ptr noundef nonnull align 8 dereferenceable(80) %22, ptr noundef nonnull align 8 dereferenceable(64) %5)
          to label %_ZNSt5dequeIN4Json9OurReader9ErrorInfoESaIS2_EE9push_backERKS2_.exit unwind label %23

_ZNSt5dequeIN4Json9OurReader9ErrorInfoESaIS2_EE9push_backERKS2_.exit: ; preds = %.noexc, %21
  call void @_ZNSt7__cxx1112basic_stringIcSt11char_traitsIcESaIcEED1Ev(ptr noundef nonnull align 8 dereferenceable(32) %6) #25
  ret i1 false

23:                                               ; preds = %21, %15, %4
  %24 = landingpad { ptr, i32 }
          cleanup
  call void @_ZNSt7__cxx1112basic_stringIcSt11char_traitsIcESaIcEED1Ev(ptr noundef nonnull align 8 dereferenceable(32) %6) #25
  resume { ptr, i32 } %24
}